target datalayout = "e-m:e-p270:32:32-p271:32:32-p272:64:64-i64:64-i128:128-f80:128-n8:16:32:64-S128"
target triple = "x86_64-unknown-linux-gnu"

%"class.openvdb::v11_0::points::StringMetaCache" = type { %"class.std::unordered_map" }
%"class.std::unordered_map" = type { %"class.std::_Hashtable" }
%"class.std::_Hashtable" = type { ptr, i64, %"struct.std::__detail::_Hash_node_base", i64, %"struct.std::__detail::_Prime_rehash_policy", ptr }
%"struct.std::__detail::_Hash_node_base" = type { ptr }
%"struct.std::__detail::_Prime_rehash_policy" = type { float, i64 }
%"class.std::__shared_count" = type { ptr }
%"class.openvdb::v11_0::points::StringAttributeHandle" = type { %"class.openvdb::v11_0::points::AttributeHandle", ptr }
%"class.openvdb::v11_0::points::AttributeHandle" = type <{ ptr, ptr, ptr, ptr, ptr, ptr, %"class.std::shared_ptr.27", i32, i32, i8, [7 x i8] }>
%"class.std::shared_ptr.27" = type { %"class.std::__shared_ptr.28" }
%"class.std::__shared_ptr.28" = type { ptr, %"class.std::__shared_count" }
%"class.openvdb::v11_0::points::StringAttributeWriteHandle" = type { %"class.openvdb::v11_0::points::StringAttributeHandle", %"class.openvdb::v11_0::points::StringMetaCache", %"class.openvdb::v11_0::points::AttributeWriteHandle" }
%"class.openvdb::v11_0::points::AttributeWriteHandle" = type { %"class.openvdb::v11_0::points::AttributeHandle.base", [7 x i8] }
%"class.openvdb::v11_0::points::AttributeHandle.base" = type <{ ptr, ptr, ptr, ptr, ptr, ptr, %"class.std::shared_ptr.27", i32, i32, i8 }>
%"struct.std::atomic.22" = type { %"struct.std::__atomic_base.23" }
%"struct.std::__atomic_base.23" = type { i32 }
%"struct.std::atomic" = type { %"struct.std::__atomic_base" }
%"struct.std::__atomic_base" = type { i8 }
%"class.openvdb::v11_0::points::AttributeArray" = type { ptr, i8, %"class.tbb::detail::d1::spin_mutex", i8, i8, %"struct.std::atomic.22", %union.anon.24 }
%"class.tbb::detail::d1::spin_mutex" = type { %"struct.std::atomic" }
%union.anon.24 = type { %"class.std::unique_ptr" }
%"class.std::unique_ptr" = type { %"struct.std::__uniq_ptr_data" }
%"struct.std::__uniq_ptr_data" = type { %"class.std::__uniq_ptr_impl" }
%"class.std::__uniq_ptr_impl" = type { %"class.std::tuple" }
%"class.std::tuple" = type { %"struct.std::_Tuple_impl" }
%"struct.std::_Tuple_impl" = type { %"struct.std::_Head_base.26" }
%"struct.std::_Head_base.26" = type { ptr }
%"class.openvdb::v11_0::points::TypedAttributeArray" = type { %"class.openvdb::v11_0::points::AttributeArray", %"class.std::unique_ptr.77", i32, i32 }
%"class.std::unique_ptr.77" = type { %"struct.std::__uniq_ptr_data.78" }
%"struct.std::__uniq_ptr_data.78" = type { %"class.std::__uniq_ptr_impl.79" }
%"class.std::__uniq_ptr_impl.79" = type { %"class.std::tuple.80" }
%"class.std::tuple.80" = type { %"struct.std::_Tuple_impl.81" }
%"struct.std::_Tuple_impl.81" = type { %"struct.std::_Head_base.84" }
%"struct.std::_Head_base.84" = type { ptr }

; Function Attrs: mustprogress nounwind uwtable
define linkonce_odr noundef nonnull align 8 dereferenceable(8) ptr @_ZNSt10_Head_baseILm0EPjLb0EE7_M_headERKS1_(ptr noundef nonnull align 8 dereferenceable(8) %__b) #5 comdat align 2 {
entry:
  %__b.addr = alloca ptr, align 8
  store ptr %__b, ptr %__b.addr, align 8
  %0 = load ptr, ptr %__b.addr, align 8
  %_M_head_impl = getelementptr inbounds %"struct.std::_Head_base.84", ptr %0, i32 0, i32 0
  ret ptr %_M_head_impl
}

; Function Attrs: mustprogress nounwind uwtable
define linkonce_odr noundef nonnull align 8 dereferenceable(8) ptr @_ZNSt11_Tuple_implILm0EJPjSt14default_deleteIA_jEEE7_M_headERKS4_(ptr noundef nonnull align 8 dereferenceable(8) %__t) #5 comdat align 2 {
entry:
  %__t.addr = alloca ptr, align 8
  store ptr %__t, ptr %__t.addr, align 8
  %0 = load ptr, ptr %__t.addr, align 8
  %call = call noundef nonnull align 8 dereferenceable(8) ptr @_ZNSt10_Head_baseILm0EPjLb0EE7_M_headERKS1_(ptr noundef nonnull align 8 dereferenceable(8) %0) #3
  ret ptr %call
}

; Function Attrs: mustprogress nounwind uwtable
define linkonce_odr noundef nonnull align 8 dereferenceable(8) ptr @_ZSt12__get_helperILm0EPjJSt14default_deleteIA_jEEERKT0_RKSt11_Tuple_implIXT_EJS4_DpT1_EE(ptr noundef nonnull align 8 dereferenceable(8) %__t) #5 comdat {
entry:
  %__t.addr = alloca ptr, align 8
  store ptr %__t, ptr %__t.addr, align 8
  %0 = load ptr, ptr %__t.addr, align 8
  %call = call noundef nonnull align 8 dereferenceable(8) ptr @_ZNSt11_Tuple_implILm0EJPjSt14default_deleteIA_jEEE7_M_headERKS4_(ptr noundef nonnull align 8 dereferenceable(8) %0) #3
  ret ptr %call
}

; Function Attrs: mustprogress nounwind uwtable
define linkonce_odr noundef nonnull align 8 dereferenceable(8) ptr @_ZSt3getILm0EJPjSt14default_deleteIA_jEEERKNSt13tuple_elementIXT_ESt5tupleIJDpT0_EEE4typeERKS8_(ptr noundef nonnull align 8 dereferenceable(8) %__t) #5 comdat {
entry:
  %__t.addr = alloca ptr, align 8
  store ptr %__t, ptr %__t.addr, align 8
  %0 = load ptr, ptr %__t.addr, align 8
  %call = call noundef nonnull align 8 dereferenceable(8) ptr @_ZSt12__get_helperILm0EPjJSt14default_deleteIA_jEEERKT0_RKSt11_Tuple_implIXT_EJS4_DpT1_EE(ptr noundef nonnull align 8 dereferenceable(8) %0) #3
  ret ptr %call
}

; Function Attrs: mustprogress nounwind uwtable
define linkonce_odr noundef ptr @_ZNKSt15__uniq_ptr_implIjSt14default_deleteIA_jEE6_M_ptrEv(ptr noundef nonnull align 8 dereferenceable(8) %this) #5 comdat align 2 {
entry:
  %this.addr = alloca ptr, align 8
  store ptr %this, ptr %this.addr, align 8
  %this1 = load ptr, ptr %this.addr, align 8
  %_M_t = getelementptr inbounds %"class.std::__uniq_ptr_impl.79", ptr %this1, i32 0, i32 0
  %call = call noundef nonnull align 8 dereferenceable(8) ptr @_ZSt3getILm0EJPjSt14default_deleteIA_jEEERKNSt13tuple_elementIXT_ESt5tupleIJDpT0_EEE4typeERKS8_(ptr noundef nonnull align 8 dereferenceable(8) %_M_t) #3
  %0 = load ptr, ptr %call, align 8
  ret ptr %0
}

; Function Attrs: mustprogress nounwind uwtable
define linkonce_odr noundef ptr @_ZNKSt10unique_ptrIA_jSt14default_deleteIS0_EE3getEv(ptr noundef nonnull align 8 dereferenceable(8) %this) #5 comdat align 2 {
entry:
  %this.addr = alloca ptr, align 8
  store ptr %this, ptr %this.addr, align 8
  %this1 = load ptr, ptr %this.addr, align 8
  %_M_t = getelementptr inbounds %"class.std::unique_ptr.77", ptr %this1, i32 0, i32 0
  %call = call noundef ptr @_ZNKSt15__uniq_ptr_implIjSt14default_deleteIA_jEE6_M_ptrEv(ptr noundef nonnull align 8 dereferenceable(8) %_M_t) #3
  ret ptr %call
}

; Function Attrs: mustprogress nounwind uwtable
define linkonce_odr void @_ZN7openvdb5v11_06points11StringCodecILb0EE6encodeIjEEvRKjRT_(ptr noundef nonnull align 4 dereferenceable(4) %val, ptr noundef nonnull align 4 dereferenceable(4) %data) #5 comdat align 2 {
entry:
  %val.addr = alloca ptr, align 8
  %data.addr = alloca ptr, align 8
  store ptr %val, ptr %val.addr, align 8
  store ptr %data, ptr %data.addr, align 8
  %0 = load ptr, ptr %val.addr, align 8
  %1 = load i32, ptr %0, align 4
  %2 = load ptr, ptr %data.addr, align 8
  store i32 %1, ptr %2, align 4
  ret void
}

; Function Attrs: mustprogress nounwind uwtable
define linkonce_odr noundef ptr @_ZN7openvdb5v11_06points19TypedAttributeArrayIjNS1_11StringCodecILb0EEEE4dataEv(ptr noundef nonnull align 8 dereferenceable(40) %this) #5 comdat align 2 {
entry:
  %this.addr = alloca ptr, align 8
  store ptr %this, ptr %this.addr, align 8
  %this1 = load ptr, ptr %this.addr, align 8
  %mData = getelementptr inbounds %"class.openvdb::v11_0::points::TypedAttributeArray", ptr %this1, i32 0, i32 1
  %call = call noundef ptr @_ZNKSt10unique_ptrIA_jSt14default_deleteIS0_EE3getEv(ptr noundef nonnull align 8 dereferenceable(8) %mData) #3
  ret ptr %call
}

; Function Attrs: mustprogress uwtable
define linkonce_odr void @_ZN7openvdb5v11_06points19TypedAttributeArrayIjNS1_11StringCodecILb0EEEE9setUnsafeEjRKj(ptr noundef nonnull align 8 dereferenceable(40) %this, i32 noundef %n, ptr noundef nonnull align 4 dereferenceable(4) %val) #4 comdat align 2 {
entry:
  %this.addr = alloca ptr, align 8
  %n.addr = alloca i32, align 4
  %val.addr = alloca ptr, align 8
  store ptr %this, ptr %this.addr, align 8
  store i32 %n, ptr %n.addr, align 4
  store ptr %val, ptr %val.addr, align 8
  %this1 = load ptr, ptr %this.addr, align 8
  %0 = load ptr, ptr %val.addr, align 8
  %call = call noundef ptr @_ZN7openvdb5v11_06points19TypedAttributeArrayIjNS1_11StringCodecILb0EEEE4dataEv(ptr noundef nonnull align 8 dereferenceable(40) %this1)
  %mIsUniform = getelementptr inbounds %"class.openvdb::v11_0::points::AttributeArray", ptr %this1, i32 0, i32 1
  %1 = load i8, ptr %mIsUniform, align 8
  %tobool = trunc i8 %1 to i1
  br i1 %tobool, label %cond.true, label %cond.false

cond.true:                                        ; preds = %entry
  br label %cond.end

cond.false:                                       ; preds = %entry
  %2 = load i32, ptr %n.addr, align 4
  br label %cond.end

cond.end:                                         ; preds = %cond.false, %cond.true
  %cond = phi i32 [ 0, %cond.true ], [ %2, %cond.false ]
  %idxprom = zext i32 %cond to i64
  %arrayidx = getelementptr inbounds i32, ptr %call, i64 %idxprom
  call void @_ZN7openvdb5v11_06points11StringCodecILb0EE6encodeIjEEvRKjRT_(ptr noundef nonnull align 4 dereferenceable(4) %0, ptr noundef nonnull align 4 dereferenceable(4) %arrayidx)
  ret void
}

; Function Attrs: mustprogress uwtable
define linkonce_odr void @_ZN7openvdb5v11_06points19TypedAttributeArrayIjNS1_11StringCodecILb0EEEE9setUnsafeEPNS1_14AttributeArrayEjRKj(ptr noundef %array, i32 noundef %n, ptr noundef nonnull align 4 dereferenceable(4) %value) #4 comdat align 2 {
entry:
  %array.addr = alloca ptr, align 8
  %n.addr = alloca i32, align 4
  %value.addr = alloca ptr, align 8
  store ptr %array, ptr %array.addr, align 8
  store i32 %n, ptr %n.addr, align 4
  store ptr %value, ptr %value.addr, align 8
  %0 = load ptr, ptr %array.addr, align 8
  %1 = load i32, ptr %n.addr, align 4
  %2 = load ptr, ptr %value.addr, align 8
  call void @_ZN7openvdb5v11_06points19TypedAttributeArrayIjNS1_11StringCodecILb0EEEE9setUnsafeEjRKj(ptr noundef nonnull align 8 dereferenceable(40) %0, i32 noundef %1, ptr noundef nonnull align 4 dereferenceable(4) %2)
  ret void
}

; Function Attrs: mustprogress uwtable
define linkonce_odr void @_ZNK7openvdb5v11_06points20AttributeWriteHandleIjNS1_11StringCodecILb0EEEE3setILb0EEENSt9enable_ifIXntT_EvE4typeEjRKj(ptr noundef nonnull align 8 dereferenceable(73) %this, i32 noundef %index, ptr noundef nonnull align 4 dereferenceable(4) %value) #4 comdat align 2 {
entry:
  %this.addr = alloca ptr, align 8
  %index.addr = alloca i32, align 4
  %value.addr = alloca ptr, align 8
  store ptr %this, ptr %this.addr, align 8
  store i32 %index, ptr %index.addr, align 4
  store ptr %value, ptr %value.addr, align 8
  %this1 = load ptr, ptr %this.addr, align 8
  %mArray = getelementptr inbounds %"class.openvdb::v11_0::points::AttributeHandle", ptr %this1, i32 0, i32 1
  %0 = load ptr, ptr %mArray, align 8
  %1 = load i32, ptr %index.addr, align 4
  %2 = load ptr, ptr %value.addr, align 8
  call void @_ZN7openvdb5v11_06points19TypedAttributeArrayIjNS1_11StringCodecILb0EEEE9setUnsafeEPNS1_14AttributeArrayEjRKj(ptr noundef %0, i32 noundef %1, ptr noundef nonnull align 4 dereferenceable(4) %2)
  ret void
}

; Function Attrs: mustprogress nounwind uwtable
define linkonce_odr noundef i32 @_ZNK7openvdb5v11_06points15AttributeHandleIjNS1_11StringCodecILb0EEEE5indexEjj(ptr noundef nonnull align 8 dereferenceable(73) %this, i32 noundef %n, i32 noundef %m) #5 comdat align 2 {
entry:
  %this.addr = alloca ptr, align 8
  %n.addr = alloca i32, align 4
  %m.addr = alloca i32, align 4
  %index = alloca i32, align 4
  store ptr %this, ptr %this.addr, align 8
  store i32 %n, ptr %n.addr, align 4
  store i32 %m, ptr %m.addr, align 4
  %this1 = load ptr, ptr %this.addr, align 8
  %0 = load i32, ptr %n.addr, align 4
  %mStrideOrTotalSize = getelementptr inbounds %"class.openvdb::v11_0::points::AttributeHandle", ptr %this1, i32 0, i32 7
  %1 = load i32, ptr %mStrideOrTotalSize, align 8
  %mul = mul i32 %0, %1
  %2 = load i32, ptr %m.addr, align 4
  %add = add i32 %mul, %2
  store i32 %add, ptr %index, align 4
  %3 = load i32, ptr %index, align 4
  ret i32 %3
}

; Function Attrs: mustprogress uwtable
define linkonce_odr void @_ZN7openvdb5v11_06points20AttributeWriteHandleIjNS1_11StringCodecILb0EEEE3setEjjRKj(ptr noundef nonnull align 8 dereferenceable(73) %this, i32 noundef %n, i32 noundef %m, ptr noundef nonnull align 4 dereferenceable(4) %value) #4 comdat align 2 {
entry:
  %this.addr = alloca ptr, align 8
  %n.addr = alloca i32, align 4
  %m.addr = alloca i32, align 4
  %value.addr = alloca ptr, align 8
  store ptr %this, ptr %this.addr, align 8
  store i32 %n, ptr %n.addr, align 4
  store i32 %m, ptr %m.addr, align 4
  store ptr %value, ptr %value.addr, align 8
  %this1 = load ptr, ptr %this.addr, align 8
  %0 = load i32, ptr %n.addr, align 4
  %1 = load i32, ptr %m.addr, align 4
  %call = call noundef i32 @_ZNK7openvdb5v11_06points15AttributeHandleIjNS1_11StringCodecILb0EEEE5indexEjj(ptr noundef nonnull align 8 dereferenceable(73) %this1, i32 noundef %0, i32 noundef %1)
  %2 = load ptr, ptr %value.addr, align 8
  call void @_ZNK7openvdb5v11_06points20AttributeWriteHandleIjNS1_11StringCodecILb0EEEE3setILb0EEENSt9enable_ifIXntT_EvE4typeEjRKj(ptr noundef nonnull align 8 dereferenceable(73) %this1, i32 noundef %call, ptr noundef nonnull align 4 dereferenceable(4) %2)
  ret void
}

; Function Attrs: mustprogress uwtable
define void @_ZN7openvdb5v11_06points26StringAttributeWriteHandle3setEjRKNSt7__cxx1112basic_stringIcSt11char_traitsIcESaIcEEE(ptr noundef nonnull align 8 dereferenceable(224) %this, i32 noundef %n, ptr noundef nonnull align 8 dereferenceable(32) %name) #4 align 2 {
entry:
  %this.addr = alloca ptr, align 8
  %n.addr = alloca i32, align 4
  %name.addr = alloca ptr, align 8
  %index = alloca i32, align 4
  store ptr %this, ptr %this.addr, align 8
  store i32 %n, ptr %n.addr, align 4
  store ptr %name, ptr %name.addr, align 8
  %this1 = load ptr, ptr %this.addr, align 8
  %0 = load ptr, ptr %name.addr, align 8
  %call = call noundef i32 @_ZNK7openvdb5v11_06points26StringAttributeWriteHandle8getIndexERKNSt7__cxx1112basic_stringIcSt11char_traitsIcESaIcEEE(ptr noundef nonnull align 8 dereferenceable(224) %this1, ptr noundef nonnull align 8 dereferenceable(32) %0)
  store i32 %call, ptr %index, align 4
  %mWriteHandle = getelementptr inbounds %"class.openvdb::v11_0::points::StringAttributeWriteHandle", ptr %this1, i32 0, i32 2
  %1 = load i32, ptr %n.addr, align 4
  call void @_ZN7openvdb5v11_06points20AttributeWriteHandleIjNS1_11StringCodecILb0EEEE3setEjjRKj(ptr noundef nonnull align 8 dereferenceable(73) %mWriteHandle, i32 noundef %1, i32 noundef 0, ptr noundef nonnull align 4 dereferenceable(4) %index)
  ret void
}